; Function Attrs: nounwind uwtable
define void @glfwSetX11SelectionString(ptr noundef %0) local_unnamed_addr #0 {
  %2 = load i32, ptr @_glfw, align 8, !tbaa !450
  %.not = icmp eq i32 %2, 0
  br i1 %.not, label %3, label %4

3:                                                ; preds = %1
  tail call void (i32, ptr, ...) @_glfwInputError(i32 noundef 65537, ptr noundef null) #17
  br label %21

4:                                                ; preds = %1
  %5 = load i32, ptr getelementptr inbounds nuw (i8, ptr @_glfw, i64 40), align 8, !tbaa !451
  %.not1 = icmp eq i32 %5, 393220
  br i1 %.not1, label %7, label %6

6:                                                ; preds = %4
  tail call void (i32, ptr, ...) @_glfwInputError(i32 noundef 65550, ptr noundef nonnull @.str.33) #17
  br label %21

7:                                                ; preds = %4
  %8 = load ptr, ptr getelementptr inbounds nuw (i8, ptr @_glfw, i64 137920), align 8, !tbaa !452
  tail call void @_glfw_free(ptr noundef %8) #17
  %9 = tail call ptr @_glfw_strdup(ptr noundef %0) #17
  store ptr %9, ptr getelementptr inbounds nuw (i8, ptr @_glfw, i64 137920), align 8, !tbaa !452
  %10 = load ptr, ptr getelementptr inbounds nuw (i8, ptr @_glfw, i64 141904), align 8, !tbaa !427
  %11 = load ptr, ptr getelementptr inbounds nuw (i8, ptr @_glfw, i64 137840), align 8, !tbaa !93
  %12 = load i64, ptr getelementptr inbounds nuw (i8, ptr @_glfw, i64 141264), align 8, !tbaa !120
  %13 = load i64, ptr getelementptr inbounds nuw (i8, ptr @_glfw, i64 137872), align 8, !tbaa !104
  %14 = tail call i32 %10(ptr noundef %11, i64 noundef %12, i64 noundef %13, i64 noundef 0) #17
  %15 = load ptr, ptr getelementptr inbounds nuw (i8, ptr @_glfw, i64 141640), align 8, !tbaa !356
  %16 = load ptr, ptr getelementptr inbounds nuw (i8, ptr @_glfw, i64 137840), align 8, !tbaa !93
  %17 = load i64, ptr getelementptr inbounds nuw (i8, ptr @_glfw, i64 141264), align 8, !tbaa !120
  %18 = tail call i64 %15(ptr noundef %16, i64 noundef %17) #17
  %19 = load i64, ptr getelementptr inbounds nuw (i8, ptr @_glfw, i64 137872), align 8, !tbaa !104
  %.not2 = icmp eq i64 %18, %19
  br i1 %.not2, label %21, label %20

20:                                               ; preds = %7
  tail call void (i32, ptr, ...) @_glfwInputError(i32 noundef 65544, ptr noundef nonnull @.str.34) #17
  br label %21

21:                                               ; preds = %20, %7, %6, %3
  ret void
}